Certificate:
    Data:
        Version: 3 (0x2)
        Serial Number: 1 (0x1)
    Signature Algorithm: sha1WithRSAEncryption
        Issuer: C=CN, ST=HB, L=WH, O=Fort-Funston, OU=lee, CN=CN/name=ca/emailAddress=mail@host.domain
        Validity
            Not Before: Feb 10 14:03:15 2018 GMT
            Not After : Feb  8 14:03:15 2028 GMT
        Subject: C=CN, ST=HB, L=WH, O=Fort-Funston, OU=lee, CN=server/name=server/emailAddress=mail@host.domain
        Subject Public Key Info:
            Public Key Algorithm: rsaEncryption
                Public-Key: (4096 bit)
                Modulus:
                    00:d8:21:66:f1:69:fa:42:96:f2:d4:66:b0:52:80:
                    13:5d:9c:05:b9:cd:f0:fe:04:da:6d:af:09:e5:a4:
                    26:36:72:76:88:e9:0d:28:30:c3:23:38:78:67:1d:
                    36:1d:ba:1f:49:3a:46:58:ea:6b:c3:a3:ea:f1:77:
                    47:9f:6a:eb:ea:3d:af:99:b4:98:db:af:02:1a:77:
                    f6:e6:70:06:0f:ff:e6:64:bb:13:92:00:c0:9b:e1:
                    13:b5:4e:d2:96:89:fd:50:6a:63:34:25:91:53:05:
                    29:2b:3c:0c:20:3b:4e:b3:fc:6c:aa:0a:2b:ac:af:
                    53:31:d0:bd:39:3d:87:59:ca:2e:db:d0:10:62:e5:
                    e3:2d:cb:b7:01:3c:10:1c:9e:3c:b5:d5:b4:a4:bb:
                    d8:84:8d:55:c9:0d:b9:ba:05:39:23:59:63:44:6f:
                    c9:aa:01:e6:e7:c1:24:b2:6b:a9:13:1d:91:88:2a:
                    ab:0f:3c:4c:65:1b:40:fd:a7:db:0a:09:9c:de:4f:
                    ba:c8:08:fe:2d:87:bf:7a:7c:95:ad:59:7e:8e:66:
                    83:ac:9a:6f:34:1f:dc:30:70:bf:5e:2a:ac:bd:1d:
                    79:bd:80:31:b1:8f:f8:70:63:2e:cc:d0:fb:4c:f6:
                    57:03:45:b2:7a:65:1e:5f:da:a0:f7:50:8e:39:03:
                    2d:25:27:b7:16:dd:34:67:6b:b3:90:0d:3f:c6:6b:
                    0c:10:57:5f:94:3c:60:8f:d5:e9:5e:64:d0:7e:f1:
                    37:cc:07:9f:81:e3:63:76:fa:93:12:95:b0:67:26:
                    60:0e:58:41:50:62:ab:12:71:c7:eb:78:51:20:9b:
                    53:6e:47:26:98:c0:0f:4f:fd:bc:39:e9:e6:4e:4b:
                    40:7b:d9:da:1e:70:7e:52:2c:50:92:1f:3d:13:7c:
                    0e:87:c1:be:b7:47:65:9a:d6:40:af:31:14:c2:41:
                    3d:be:c2:82:8d:09:c5:40:c0:c5:69:a1:98:a5:eb:
                    e8:35:26:f9:b0:04:46:a9:71:74:e7:f3:dd:9d:9e:
                    b4:b4:2d:73:44:8e:18:e9:e0:62:ad:4d:3d:b7:d5:
                    c7:f3:2e:cb:c0:38:a5:f5:56:39:7e:42:d8:81:c1:
                    44:9b:69:ea:71:9b:97:82:30:db:ca:04:8c:32:6e:
                    67:22:66:a3:cd:4f:48:b8:c4:fe:68:fe:ae:a1:0b:
                    cd:da:11:05:56:e6:41:74:e1:c0:ed:80:67:00:10:
                    a4:8a:9e:5d:05:6e:01:7a:9a:e2:2f:d3:ce:4e:9f:
                    47:cd:33:20:3d:80:dd:be:ef:5d:66:14:58:14:e9:
                    f8:61:36:c2:bc:d2:53:ca:44:41:34:23:b6:05:bc:
                    01:d2:73
                Exponent: 65537 (0x10001)
        X509v3 extensions:
            X509v3 Basic Constraints: 
                CA:FALSE
            Netscape Cert Type: 
                SSL Server
            Netscape Comment: 
                Easy-RSA Generated Server Certificate
            X509v3 Subject Key Identifier: 
                98:62:2E:AB:B8:03:A4:15:D0:34:45:BC:4B:C2:EC:41:77:7B:7E:05
            X509v3 Authority Key Identifier: 
                keyid:8E:C3:DD:AF:B0:B2:23:50:F0:6B:73:4B:0B:1A:FD:79:62:39:40:EF
                DirName:/C=CN/ST=HB/L=WH/O=Fort-Funston/OU=lee/CN=CN/name=ca/emailAddress=mail@host.domain
                serial:A7:2A:C7:A9:27:C0:25:55

            X509v3 Extended Key Usage: 
                TLS Web Server Authentication
            X509v3 Key Usage: 
                Digital Signature, Key Encipherment
    Signature Algorithm: sha1WithRSAEncryption
         3a:aa:67:73:3b:a5:2e:b4:a2:49:43:89:e9:e2:8b:d0:ac:7a:
         ba:a0:6f:9c:a9:b1:a6:4f:45:dd:1c:67:33:f3:c0:45:3a:49:
         09:9a:da:39:fd:29:c6:a3:9e:ab:f4:21:c4:73:c5:2a:b4:81:
         e2:73:e6:b7:b2:04:da:55:57:47:1b:52:56:69:44:ce:ac:51:
         a6:f3:0c:8c:78:4d:19:5c:a9:2d:bb:b4:07:09:bd:12:4c:77:
         97:60:57:44:e6:89:08:92:85:5d:ae:0b:31:a6:1b:25:fe:0f:
         47:fe:ae:83:00:e4:a4:15:10:65:f8:60:a3:37:5d:46:62:05:
         55:9d:a5:d2:f0:24:5d:d0:18:fa:13:0b:03:22:7c:05:e8:56:
         42:85:df:26:b8:76:12:67:46:bb:2b:10:bd:a9:8f:71:8a:1c:
         17:9a:73:57:02:3d:6d:84:a7:0f:62:5c:6e:f6:66:20:45:d5:
         c9:8c:e3:d5:7f:9a:db:c2:eb:8f:36:e8:ac:00:fd:f7:33:14:
         84:4f:d7:62:e3:a7:d1:a2:09:bc:11:d8:71:55:f5:a5:98:79:
         95:9e:94:5f:9d:86:bc:bf:3f:92:94:a4:0c:7b:41:b4:90:40:
         2b:1d:73:d0:34:23:5c:9c:32:e1:40:15:ec:53:50:45:7b:db:
         fb:b4:47:da:b2:02:4d:b8:a5:b2:db:df:df:03:60:76:22:2e:
         9d:a3:4d:b3:09:0e:e0:4b:7e:e0:c8:a1:81:e3:12:f9:d3:e4:
         bd:ad:06:7b:36:87:d4:51:bd:82:76:cc:46:ed:8e:59:f5:ce:
         aa:79:0a:f9:17:b6:1d:8b:09:25:f3:38:48:a6:b0:ae:38:a5:
         1f:5f:29:8d:2e:7d:48:6f:a8:59:ab:34:68:ed:d0:5b:c7:59:
         e6:67:12:42:e6:cf:a1:50:80:78:8c:bd:a3:a0:fb:85:a9:9e:
         bc:e5:a9:3e:b5:ec:71:b3:06:af:f2:4d:81:73:9a:ee:9e:cf:
         28:cc:fb:62:93:a3:53:0d:ab:62:a4:7e:87:b6:58:af:50:93:
         e1:e1:d4:79:87:d9:f7:1f:a8:4f:97:64:3e:bb:3b:d8:fb:f5:
         fe:d1:a3:ec:cd:28:00:a9:e2:87:e9:59:e3:5f:d9:1c:fa:a0:
         a5:28:98:4e:82:e9:d1:e2:af:27:fd:72:4e:03:83:0c:40:a8:
         83:5e:2c:b4:5a:ee:67:e9:0e:f2:a4:5b:85:dd:f4:1e:35:12:
         fa:8a:68:67:74:5b:f6:31:51:68:bd:aa:05:96:a2:29:d2:52:
         15:b4:6e:97:cf:23:ac:da:cc:6a:9e:dd:0c:48:8e:f5:22:46:
         c4:56:85:24:f4:c1:4b:99
-----BEGIN CERTIFICATE-----
MIIG7TCCBNWgAwIBAgIBATANBgkqhkiG9w0BAQUFADCBhzELMAkGA1UEBhMCQ04x
CzAJBgNVBAgTAkhCMQswCQYDVQQHEwJXSDEVMBMGA1UEChMMRm9ydC1GdW5zdG9u
MQwwCgYDVQQLEwNsZWUxCzAJBgNVBAMTAkNOMQswCQYDVQQpEwJjYTEfMB0GCSqG
SIb3DQEJARYQbWFpbEBob3N0LmRvbWFpbjAeFw0xODAyMTAxNDAzMTVaFw0yODAy
MDgxNDAzMTVaMIGPMQswCQYDVQQGEwJDTjELMAkGA1UECBMCSEIxCzAJBgNVBAcT
AldIMRUwEwYDVQQKEwxGb3J0LUZ1bnN0b24xDDAKBgNVBAsTA2xlZTEPMA0GA1UE
AxMGc2VydmVyMQ8wDQYDVQQpEwZzZXJ2ZXIxHzAdBgkqhkiG9w0BCQEWEG1haWxA
aG9zdC5kb21haW4wggIiMA0GCSqGSIb3DQEBAQUAA4ICDwAwggIKAoICAQDYIWbx
afpClvLUZrBSgBNdnAW5zfD+BNptrwnlpCY2cnaI6Q0oMMMjOHhnHTYduh9JOkZY
6mvDo+rxd0efauvqPa+ZtJjbrwIad/bmcAYP/+ZkuxOSAMCb4RO1TtKWif1QamM0
JZFTBSkrPAwgO06z/GyqCiusr1Mx0L05PYdZyi7b0BBi5eMty7cBPBAcnjy11bSk
u9iEjVXJDbm6BTkjWWNEb8mqAebnwSSya6kTHZGIKqsPPExlG0D9p9sKCZzeT7rI
CP4th796fJWtWX6OZoOsmm80H9wwcL9eKqy9HXm9gDGxj/hwYy7M0PtM9lcDRbJ6
ZR5f2qD3UI45Ay0lJ7cW3TRna7OQDT/GawwQV1+UPGCP1eleZNB+8TfMB5+B42N2
+pMSlbBnJmAOWEFQYqsSccfreFEgm1NuRyaYwA9P/bw56eZOS0B72doecH5SLFCS
Hz0TfA6Hwb63R2Wa1kCvMRTCQT2+woKNCcVAwMVpoZil6+g1JvmwBEapcXTn892d
nrS0LXNEjhjp4GKtTT231cfzLsvAOKX1Vjl+QtiBwUSbaepxm5eCMNvKBIwybmci
ZqPNT0i4xP5o/q6hC83aEQVW5kF04cDtgGcAEKSKnl0FbgF6muIv085On0fNMyA9
gN2+711mFFgU6fhhNsK80lPKREE0I7YFvAHScwIDAQABo4IBWDCCAVQwCQYDVR0T
BAIwADARBglghkgBhvhCAQEEBAMCBkAwNAYJYIZIAYb4QgENBCcWJUVhc3ktUlNB
IEdlbmVyYXRlZCBTZXJ2ZXIgQ2VydGlmaWNhdGUwHQYDVR0OBBYEFJhiLqu4A6QV
0DRFvEvC7EF3e34FMIG8BgNVHSMEgbQwgbGAFI7D3a+wsiNQ8GtzSwsa/XliOUDv
oYGNpIGKMIGHMQswCQYDVQQGEwJDTjELMAkGA1UECBMCSEIxCzAJBgNVBAcTAldI
MRUwEwYDVQQKEwxGb3J0LUZ1bnN0b24xDDAKBgNVBAsTA2xlZTELMAkGA1UEAxMC
Q04xCzAJBgNVBCkTAmNhMR8wHQYJKoZIhvcNAQkBFhBtYWlsQGhvc3QuZG9tYWlu
ggkApyrHqSfAJVUwEwYDVR0lBAwwCgYIKwYBBQUHAwEwCwYDVR0PBAQDAgWgMA0G
CSqGSIb3DQEBBQUAA4ICAQA6qmdzO6UutKJJQ4np4ovQrHq6oG+cqbGmT0XdHGcz
88BFOkkJmto5/SnGo56r9CHEc8UqtIHic+a3sgTaVVdHG1JWaUTOrFGm8wyMeE0Z
XKktu7QHCb0STHeXYFdE5okIkoVdrgsxphsl/g9H/q6DAOSkFRBl+GCjN11GYgVV
naXS8CRd0Bj6EwsDInwF6FZChd8muHYSZ0a7KxC9qY9xihwXmnNXAj1thKcPYlxu
9mYgRdXJjOPVf5rbwuuPNuisAP33MxSET9di46fRogm8EdhxVfWlmHmVnpRfnYa8
vz+SlKQMe0G0kEArHXPQNCNcnDLhQBXsU1BFe9v7tEfasgJNuKWy29/fA2B2Ii6d
o02zCQ7gS37gyKGB4xL50+S9rQZ7NofUUb2CdsxG7Y5Z9c6qeQr5F7Ydiwkl8zhI
prCuOKUfXymNLn1Ib6hZqzRo7dBbx1nmZxJC5s+hUIB4jL2joPuFqZ685ak+texx
swav8k2Bc5runs8ozPtik6NTDatipH6HtlivUJPh4dR5h9n3H6hPl2Q+uzvY+/X+
0aPszSgAqeKH6VnjX9kc+qClKJhOgunR4q8n/XJOA4MMQKiDXiy0Wu5n6Q7ypFuF
3fQeNRL6imhndFv2MVFovaoFlqIp0lIVtG6XzyOs2sxqnt0MSI71IkbEVoUk9MFL
mQ==
-----END CERTIFICATE-----
