Certificate:
    Data:
        Version: 3 (0x2)
        Serial Number: 2 (0x2)
    Signature Algorithm: sha1WithRSAEncryption
        Issuer: C=CN, ST=HB, L=WH, O=Fort-Funston, OU=lee, CN=CN/name=ca/emailAddress=mail@host.domain
        Validity
            Not Before: Feb 10 14:04:16 2018 GMT
            Not After : Feb  8 14:04:16 2028 GMT
        Subject: C=CN, ST=HB, L=WH, O=Fort-Funston, OU=lee, CN=client/name=client/emailAddress=mail@host.domain
        Subject Public Key Info:
            Public Key Algorithm: rsaEncryption
                Public-Key: (4096 bit)
                Modulus:
                    00:bc:47:51:c9:1e:ea:b4:fe:c2:54:e4:84:8f:1d:
                    df:65:00:d1:80:52:10:8e:ca:cb:e8:30:2e:71:07:
                    d1:93:16:be:f4:7d:dd:ac:9e:78:a3:df:8c:d4:a6:
                    58:26:8a:a3:19:bb:56:f5:33:f7:da:2e:8c:53:7a:
                    0f:6b:e7:90:b4:b6:ce:c2:50:af:a1:a8:cf:0b:ce:
                    f6:ce:95:d5:17:c2:e6:06:f6:9d:f6:f8:6f:5c:92:
                    b2:37:e2:4a:85:e2:70:bb:3b:a3:47:c8:4d:20:bc:
                    70:a7:fb:33:18:38:bb:a8:c9:3d:fb:19:1a:d3:b1:
                    06:24:23:24:e1:5b:40:52:32:0f:fe:dd:11:f0:e2:
                    67:42:1d:05:f2:46:cb:1a:8f:20:2f:3d:27:8d:a7:
                    0c:c0:db:24:e2:4f:d1:54:df:b6:7e:00:21:a9:a5:
                    af:8e:2c:d0:8b:44:b7:20:2c:7a:d8:4d:0f:1e:16:
                    d8:ef:bd:7c:bc:47:80:73:55:04:fa:7e:0b:f9:75:
                    bc:a5:1f:98:a1:00:e0:a5:4b:3b:99:e0:86:bd:d3:
                    9b:03:ca:de:06:4d:c5:73:a4:cb:1f:90:20:0f:0c:
                    42:a6:10:ca:d9:8f:7a:e8:3c:cd:7b:da:51:c8:1d:
                    e7:72:bb:dd:0f:bd:7e:06:98:95:8d:47:ea:bd:7e:
                    c3:52:c4:74:0e:e1:9b:49:bd:15:94:6a:06:9a:c5:
                    bf:ab:4f:cd:3b:9e:d3:0a:f8:e8:0b:f4:4d:00:a0:
                    78:6e:62:c6:6f:25:0c:51:a9:86:61:0d:f8:7f:ff:
                    68:8a:18:d7:fe:f6:69:f2:2e:8e:33:0b:89:a8:d7:
                    86:b3:8b:ab:22:f6:83:ae:7e:ca:c9:5c:44:cf:67:
                    ac:5b:b1:74:eb:c6:cf:5d:40:4e:19:7d:1b:e3:cb:
                    68:d5:2a:4a:d3:77:50:a4:6e:18:a9:a5:5d:84:c6:
                    22:e4:f1:68:c0:30:68:63:d8:82:45:d3:12:03:cf:
                    1a:d8:86:66:a1:59:d3:ac:e7:37:29:39:04:e7:49:
                    2f:cd:37:11:df:78:80:fa:5d:f1:50:68:7b:e9:16:
                    0a:09:a7:d2:55:bc:18:e4:61:80:89:07:ca:ca:94:
                    25:7c:1d:c7:99:8b:98:ea:44:c4:a2:91:3f:94:fe:
                    11:e2:44:ae:07:3d:60:3f:e0:53:f8:c9:1c:88:f7:
                    f6:5e:29:35:1c:e1:83:ef:05:1b:22:87:ce:3f:7e:
                    14:c6:61:60:80:c0:66:b6:37:cc:df:7d:c7:0a:8e:
                    63:0b:45:93:cd:d0:9c:26:b5:c2:4a:3d:4b:3f:06:
                    31:94:83:22:51:8f:7c:3c:37:9c:a8:75:dc:25:06:
                    2c:67:bb
                Exponent: 65537 (0x10001)
        X509v3 extensions:
            X509v3 Basic Constraints: 
                CA:FALSE
            Netscape Comment: 
                Easy-RSA Generated Certificate
            X509v3 Subject Key Identifier: 
                C6:FD:3C:67:C9:64:00:78:2B:A0:71:B9:F2:94:7F:94:44:83:32:2B
            X509v3 Authority Key Identifier: 
                keyid:8E:C3:DD:AF:B0:B2:23:50:F0:6B:73:4B:0B:1A:FD:79:62:39:40:EF
                DirName:/C=CN/ST=HB/L=WH/O=Fort-Funston/OU=lee/CN=CN/name=ca/emailAddress=mail@host.domain
                serial:A7:2A:C7:A9:27:C0:25:55

            X509v3 Extended Key Usage: 
                TLS Web Client Authentication
            X509v3 Key Usage: 
                Digital Signature
    Signature Algorithm: sha1WithRSAEncryption
         71:45:3a:87:73:05:bf:10:c4:83:5e:38:01:28:30:2b:89:08:
         9a:1b:af:79:df:1e:ec:f0:51:9f:f7:bc:b1:fa:87:85:fe:cd:
         26:4e:7c:62:97:02:1e:ed:81:9b:46:ef:0c:2a:ef:e5:0d:2c:
         1e:d2:8f:38:ef:7d:a0:84:af:82:a9:e9:b2:30:36:10:c5:1b:
         53:4c:74:f4:e4:f9:64:8b:8b:5d:47:77:53:90:23:8e:15:83:
         b0:fd:39:4a:d9:ad:af:7a:a4:5e:f5:77:a4:9c:a5:73:50:b9:
         02:68:40:13:ba:dd:b8:3d:fe:43:b5:73:6d:c1:45:83:48:c1:
         76:43:8f:b8:27:23:0d:0e:15:3e:a4:7f:0b:09:ca:4f:0c:5b:
         b1:3b:e1:aa:e9:1f:a7:5b:e1:67:87:a5:f7:e8:3f:81:18:82:
         55:7d:2c:cf:0e:7a:47:d0:41:60:de:d7:c7:7a:d4:c1:26:df:
         d5:a0:50:4a:a4:cc:91:78:2b:4b:96:4e:ef:05:cd:26:69:c2:
         74:f4:84:d2:78:b7:3b:08:a9:de:16:37:0a:c4:1a:2f:82:d8:
         d5:c7:e1:a9:7e:52:c9:af:07:71:17:f6:a4:1f:01:10:26:9c:
         34:be:cd:cf:8f:11:d8:f3:63:bb:ec:57:af:49:85:ee:a3:49:
         76:33:2e:24:91:13:c0:07:07:1b:4b:44:bd:00:98:ea:1b:b2:
         fa:7a:a9:27:93:74:65:39:33:d0:24:2f:bc:c6:ae:f3:c0:ce:
         15:04:0e:0d:ae:b8:79:ed:e5:27:34:6f:82:8a:99:a9:58:91:
         23:cf:83:b6:10:bf:7f:be:9f:0b:7a:d2:09:14:86:05:aa:dd:
         49:1b:b0:61:a0:9e:98:3c:37:96:47:d8:63:0b:8b:ba:c3:8b:
         6e:eb:42:9f:e4:f0:64:28:5c:5d:f4:1a:29:d1:32:27:00:00:
         a6:4f:f6:30:af:7d:4a:8a:bb:43:02:58:83:eb:c4:ce:ce:f0:
         30:57:54:31:ea:74:72:83:73:15:cc:bc:17:4e:26:f2:91:a4:
         c5:d6:56:09:75:9f:de:af:f9:c5:dd:0e:2d:7a:19:e4:96:46:
         4b:dc:30:d1:f8:a4:00:f9:5a:ce:72:ac:cc:b4:8b:65:52:41:
         19:c4:f0:01:87:39:b1:c9:3e:27:9d:d7:38:1c:47:6b:b0:b4:
         c4:24:1b:fe:11:df:84:c8:90:06:e1:56:4e:b6:33:93:65:19:
         2b:66:41:e4:ca:06:8e:07:b4:43:a4:8f:c7:18:f4:59:8c:f4:
         2a:84:4d:ba:00:36:a0:7e:f9:f6:6d:81:18:20:eb:2d:08:b5:
         f1:ad:b7:f9:93:b2:9a:37
-----BEGIN CERTIFICATE-----
MIIG0zCCBLugAwIBAgIBAjANBgkqhkiG9w0BAQUFADCBhzELMAkGA1UEBhMCQ04x
CzAJBgNVBAgTAkhCMQswCQYDVQQHEwJXSDEVMBMGA1UEChMMRm9ydC1GdW5zdG9u
MQwwCgYDVQQLEwNsZWUxCzAJBgNVBAMTAkNOMQswCQYDVQQpEwJjYTEfMB0GCSqG
SIb3DQEJARYQbWFpbEBob3N0LmRvbWFpbjAeFw0xODAyMTAxNDA0MTZaFw0yODAy
MDgxNDA0MTZaMIGPMQswCQYDVQQGEwJDTjELMAkGA1UECBMCSEIxCzAJBgNVBAcT
AldIMRUwEwYDVQQKEwxGb3J0LUZ1bnN0b24xDDAKBgNVBAsTA2xlZTEPMA0GA1UE
AxMGY2xpZW50MQ8wDQYDVQQpEwZjbGllbnQxHzAdBgkqhkiG9w0BCQEWEG1haWxA
aG9zdC5kb21haW4wggIiMA0GCSqGSIb3DQEBAQUAA4ICDwAwggIKAoICAQC8R1HJ
Huq0/sJU5ISPHd9lANGAUhCOysvoMC5xB9GTFr70fd2snnij34zUplgmiqMZu1b1
M/faLoxTeg9r55C0ts7CUK+hqM8LzvbOldUXwuYG9p32+G9ckrI34kqF4nC7O6NH
yE0gvHCn+zMYOLuoyT37GRrTsQYkIyThW0BSMg/+3RHw4mdCHQXyRssajyAvPSeN
pwzA2yTiT9FU37Z+ACGppa+OLNCLRLcgLHrYTQ8eFtjvvXy8R4BzVQT6fgv5dbyl
H5ihAOClSzuZ4Ia905sDyt4GTcVzpMsfkCAPDEKmEMrZj3roPM172lHIHedyu90P
vX4GmJWNR+q9fsNSxHQO4ZtJvRWUagaaxb+rT807ntMK+OgL9E0AoHhuYsZvJQxR
qYZhDfh//2iKGNf+9mnyLo4zC4mo14azi6si9oOufsrJXETPZ6xbsXTrxs9dQE4Z
fRvjy2jVKkrTd1CkbhippV2ExiLk8WjAMGhj2IJF0xIDzxrYhmahWdOs5zcpOQTn
SS/NNxHfeID6XfFQaHvpFgoJp9JVvBjkYYCJB8rKlCV8HceZi5jqRMSikT+U/hHi
RK4HPWA/4FP4yRyI9/ZeKTUc4YPvBRsih84/fhTGYWCAwGa2N8zffccKjmMLRZPN
0JwmtcJKPUs/BjGUgyJRj3w8N5yoddwlBixnuwIDAQABo4IBPjCCATowCQYDVR0T
BAIwADAtBglghkgBhvhCAQ0EIBYeRWFzeS1SU0EgR2VuZXJhdGVkIENlcnRpZmlj
YXRlMB0GA1UdDgQWBBTG/TxnyWQAeCugcbnylH+URIMyKzCBvAYDVR0jBIG0MIGx
gBSOw92vsLIjUPBrc0sLGv15YjlA76GBjaSBijCBhzELMAkGA1UEBhMCQ04xCzAJ
BgNVBAgTAkhCMQswCQYDVQQHEwJXSDEVMBMGA1UEChMMRm9ydC1GdW5zdG9uMQww
CgYDVQQLEwNsZWUxCzAJBgNVBAMTAkNOMQswCQYDVQQpEwJjYTEfMB0GCSqGSIb3
DQEJARYQbWFpbEBob3N0LmRvbWFpboIJAKcqx6knwCVVMBMGA1UdJQQMMAoGCCsG
AQUFBwMCMAsGA1UdDwQEAwIHgDANBgkqhkiG9w0BAQUFAAOCAgEAcUU6h3MFvxDE
g144ASgwK4kImhuved8e7PBRn/e8sfqHhf7NJk58YpcCHu2Bm0bvDCrv5Q0sHtKP
OO99oISvgqnpsjA2EMUbU0x09OT5ZIuLXUd3U5AjjhWDsP05Stmtr3qkXvV3pJyl
c1C5AmhAE7rduD3+Q7VzbcFFg0jBdkOPuCcjDQ4VPqR/CwnKTwxbsTvhqukfp1vh
Z4el9+g/gRiCVX0szw56R9BBYN7Xx3rUwSbf1aBQSqTMkXgrS5ZO7wXNJmnCdPSE
0ni3Owip3hY3CsQaL4LY1cfhqX5Sya8HcRf2pB8BECacNL7Nz48R2PNju+xXr0mF
7qNJdjMuJJETwAcHG0tEvQCY6huy+nqpJ5N0ZTkz0CQvvMau88DOFQQODa64ee3l
JzRvgoqZqViRI8+DthC/f76fC3rSCRSGBardSRuwYaCemDw3lkfYYwuLusOLbutC
n+TwZChcXfQaKdEyJwAApk/2MK99Soq7QwJYg+vEzs7wMFdUMep0coNzFcy8F04m
8pGkxdZWCXWf3q/5xd0OLXoZ5JZGS9ww0fikAPlaznKszLSLZVJBGcTwAYc5sck+
J53XOBxHa7C0xCQb/hHfhMiQBuFWTrYzk2UZK2ZB5MoGjge0Q6SPxxj0WYz0KoRN
ugA2oH759m2BGCDrLQi18a23+ZOymjc=
-----END CERTIFICATE-----
